target datalayout = "e-m:e-p270:32:32-p271:32:32-p272:64:64-i64:64-i128:128-f80:128-n8:16:32:64-S128"
target triple = "x86_64-pc-linux-gnu"

%struct.AVChannelLayout = type { i32, i32, %union.anon.0, ptr }
%union.anon.0 = type { i64 }
%struct.AC3EncodeContext = type { ptr, %struct.AC3EncOptions, ptr, %struct.AudioDSPContext, ptr, %struct.MECmpContext, %struct.AC3DSPContext, ptr, ptr, [6 x %struct.AC3Block], i32, i32, i32, i32, i32, i32, i32, i32, i32, i32, i32, [2 x i16], i64, i64, i32, i32, i32, i32, i32, i32, i32, ptr, i32, i32, i32, i32, i32, i32, i32, i32, [7 x i32], i32, i32, i32, i32, i32, [18 x i8], i32, i32, i32, i32, i32, i32, %struct.AC3BitAllocParameters, i32, [7 x i32], [7 x i32], i32, i32, i32, [6 x ptr], ptr, ptr, ptr, ptr, ptr, ptr, ptr, ptr, ptr, ptr, ptr, [7 x [6 x i8]], [7 x i8], i32, [7 x [6 x i8]], [7 x [6 x ptr]], i32, ptr, ptr, %union.anon.1, %union.anon.2 }
%struct.AC3EncOptions = type { i32, i32, float, float, i32, i32, i32, i32, i32, i32, i32, i32, float, float, float, float, i32, i32, i32, i32, i32, i32, i32, i32, i32, i32 }
%struct.AudioDSPContext = type { ptr, ptr, ptr }
%struct.MECmpContext = type { ptr, [6 x ptr], [6 x ptr], [6 x ptr], [6 x ptr], [6 x ptr], [6 x ptr], [6 x ptr], [6 x ptr], [6 x ptr], [6 x ptr], [6 x ptr], [6 x ptr], [6 x ptr], [6 x ptr], [2 x [4 x ptr]], [6 x ptr] }
%struct.AC3DSPContext = type { ptr, ptr, ptr, ptr, ptr, ptr, ptr, ptr, i32, i32, ptr, ptr }
%struct.AC3Block = type { [7 x ptr], [7 x ptr], [7 x ptr], [7 x ptr], [7 x ptr], [7 x ptr], [7 x ptr], [7 x ptr], [7 x ptr], [7 x ptr], i8, i32, [4 x i8], i32, i32, [7 x i8], i32, [7 x i8], [7 x i8], i32, i32, [7 x i32] }
%struct.AC3BitAllocParameters = type { i32, i32, i32, i32, i32, i32, i32, i32, i32 }
%union.anon.1 = type { [256 x float] }
%union.anon.2 = type { [512 x float] }
%struct.AVCodecContext = type { ptr, i32, i32, ptr, i32, i32, ptr, ptr, ptr, i64, i32, i32, ptr, i32, %struct.AVRational, %struct.AVRational, %struct.AVRational, i32, i32, i32, i32, i32, %struct.AVRational, i32, i32, i32, i32, i32, i32, i32, i32, i32, i32, i32, ptr, ptr, i32, float, float, float, float, float, float, float, float, float, i32, i32, i32, i32, i32, i32, i32, i32, i32, i32, i32, i32, ptr, ptr, ptr, i32, i32, i32, i32, i32, i32, i32, i32, i32, i32, %struct.AVChannelLayout, i32, i32, i32, i32, i32, i32, i32, i32, ptr, i32, i32, i32, float, float, i32, i32, i32, i32, i32, ptr, i64, i64, float, float, i32, i32, ptr, ptr, i32, i32, i32, i32, i32, ptr, ptr, ptr, ptr, i32, i32, [8 x i64], i32, i32, i32, i32, i32, i32, i32, ptr, ptr, i32, i32, i32, i32, i32, i32, i32, i32, i32, i32, ptr, ptr, i32, i32, ptr, ptr, ptr, ptr, i32, i32, i64, i32, i32, i64, ptr, i64, ptr, i32, ptr, i32 }
%struct.AVRational = type { i32, i32 }

@ff_ac3_encode_init.init_static_once = internal global i32 0, align 4

; Function Attrs: nounwind uwtable
define internal void @dprint_options(ptr noundef %0) #1 {
  %2 = alloca ptr, align 8
  store ptr %0, ptr %2, align 8, !tbaa !4
  ret void
}

; Function Attrs: cold nounwind optsize uwtable
define i32 @ff_ac3_encode_init(ptr noundef %0) #4 {
  %2 = alloca i32, align 4
  %3 = alloca ptr, align 8
  %4 = alloca ptr, align 8
  %5 = alloca i32, align 4
  %6 = alloca i32, align 4
  %7 = alloca i32, align 4
  store ptr %0, ptr %3, align 8, !tbaa !48
  call void @llvm.lifetime.start.p0(i64 8, ptr %4) #12
  %8 = load ptr, ptr %3, align 8, !tbaa !48
  %9 = getelementptr inbounds nuw %struct.AVCodecContext, ptr %8, i32 0, i32 6
  %10 = load ptr, ptr %9, align 8, !tbaa !54
  store ptr %10, ptr %4, align 8, !tbaa !4
  call void @llvm.lifetime.start.p0(i64 4, ptr %5) #12
  call void @llvm.lifetime.start.p0(i64 4, ptr %6) #12
  %11 = load ptr, ptr %3, align 8, !tbaa !48
  %12 = load ptr, ptr %4, align 8, !tbaa !4
  %13 = getelementptr inbounds nuw %struct.AC3EncodeContext, ptr %12, i32 0, i32 2
  store ptr %11, ptr %13, align 16, !tbaa !82
  %14 = load ptr, ptr %4, align 8, !tbaa !4
  %15 = call i32 @validate_options(ptr noundef %14) #14
  store i32 %15, ptr %5, align 4, !tbaa !9
  %16 = load i32, ptr %5, align 4, !tbaa !9
  %17 = icmp ne i32 %16, 0
  br i1 %17, label %18, label %20

18:                                               ; preds = %1
  %19 = load i32, ptr %5, align 4, !tbaa !9
  store i32 %19, ptr %2, align 4
  store i32 1, ptr %7, align 4
  br label %117

20:                                               ; preds = %1
  %21 = load ptr, ptr %4, align 8, !tbaa !4
  %22 = getelementptr inbounds nuw %struct.AC3EncodeContext, ptr %21, i32 0, i32 17
  %23 = load i32, ptr %22, align 4, !tbaa !11
  %24 = mul nsw i32 256, %23
  %25 = load ptr, ptr %3, align 8, !tbaa !48
  %26 = getelementptr inbounds nuw %struct.AVCodecContext, ptr %25, i32 0, i32 72
  store i32 %24, ptr %26, align 8, !tbaa !137
  %27 = load ptr, ptr %3, align 8, !tbaa !48
  %28 = getelementptr inbounds nuw %struct.AVCodecContext, ptr %27, i32 0, i32 77
  store i32 256, ptr %28, align 4, !tbaa !80
  %29 = load ptr, ptr %3, align 8, !tbaa !48
  %30 = getelementptr inbounds nuw %struct.AVCodecContext, ptr %29, i32 0, i32 75
  %31 = load i32, ptr %30, align 4, !tbaa !98
  %32 = load ptr, ptr %4, align 8, !tbaa !4
  %33 = getelementptr inbounds nuw %struct.AC3EncodeContext, ptr %32, i32 0, i32 13
  store i32 %31, ptr %33, align 4, !tbaa !138
  %34 = load ptr, ptr %4, align 8, !tbaa !4
  %35 = getelementptr inbounds nuw %struct.AC3EncodeContext, ptr %34, i32 0, i32 13
  %36 = load i32, ptr %35, align 4, !tbaa !138
  %37 = icmp eq i32 %36, 8
  br i1 %37, label %38, label %41

38:                                               ; preds = %20
  %39 = load ptr, ptr %4, align 8, !tbaa !4
  %40 = getelementptr inbounds nuw %struct.AC3EncodeContext, ptr %39, i32 0, i32 13
  store i32 7, ptr %40, align 4, !tbaa !138
  br label %41

41:                                               ; preds = %38, %20
  %42 = load ptr, ptr %4, align 8, !tbaa !4
  %43 = getelementptr inbounds nuw %struct.AC3EncodeContext, ptr %42, i32 0, i32 22
  store i64 0, ptr %43, align 8, !tbaa !109
  %44 = load ptr, ptr %4, align 8, !tbaa !4
  %45 = getelementptr inbounds nuw %struct.AC3EncodeContext, ptr %44, i32 0, i32 23
  store i64 0, ptr %45, align 16, !tbaa !111
  %46 = load ptr, ptr %4, align 8, !tbaa !4
  %47 = getelementptr inbounds nuw %struct.AC3EncodeContext, ptr %46, i32 0, i32 19
  %48 = load i32, ptr %47, align 4, !tbaa !76
  %49 = ashr i32 %48, 2
  %50 = load ptr, ptr %4, align 8, !tbaa !4
  %51 = getelementptr inbounds nuw %struct.AC3EncodeContext, ptr %50, i32 0, i32 19
  %52 = load i32, ptr %51, align 4, !tbaa !76
  %53 = ashr i32 %52, 4
  %54 = add nsw i32 %49, %53
  %55 = shl i32 %54, 1
  store i32 %55, ptr %6, align 4, !tbaa !9
  %56 = load i32, ptr %6, align 4, !tbaa !9
  %57 = mul nsw i32 8, %56
  %58 = sub nsw i32 %57, 16
  %59 = call i32 @pow_poly(i32 noundef 49154, i32 noundef %58, i32 noundef 98309)
  %60 = trunc i32 %59 to i16
  %61 = load ptr, ptr %4, align 8, !tbaa !4
  %62 = getelementptr inbounds nuw %struct.AC3EncodeContext, ptr %61, i32 0, i32 21
  %63 = getelementptr inbounds [2 x i16], ptr %62, i64 0, i64 0
  store i16 %60, ptr %63, align 4, !tbaa !139
  %64 = load ptr, ptr %4, align 8, !tbaa !4
  %65 = getelementptr inbounds nuw %struct.AC3EncodeContext, ptr %64, i32 0, i32 53
  %66 = getelementptr inbounds nuw %struct.AC3BitAllocParameters, ptr %65, i32 0, i32 0
  %67 = load i32, ptr %66, align 4, !tbaa !68
  %68 = icmp eq i32 %67, 1
  br i1 %68, label %69, label %90

69:                                               ; preds = %41
  %70 = load ptr, ptr %4, align 8, !tbaa !4
  %71 = getelementptr inbounds nuw %struct.AC3EncodeContext, ptr %70, i32 0, i32 19
  %72 = load i32, ptr %71, align 4, !tbaa !76
  %73 = add nsw i32 %72, 2
  %74 = ashr i32 %73, 2
  %75 = load ptr, ptr %4, align 8, !tbaa !4
  %76 = getelementptr inbounds nuw %struct.AC3EncodeContext, ptr %75, i32 0, i32 19
  %77 = load i32, ptr %76, align 4, !tbaa !76
  %78 = add nsw i32 %77, 2
  %79 = ashr i32 %78, 4
  %80 = add nsw i32 %74, %79
  %81 = shl i32 %80, 1
  store i32 %81, ptr %6, align 4, !tbaa !9
  %82 = load i32, ptr %6, align 4, !tbaa !9
  %83 = mul nsw i32 8, %82
  %84 = sub nsw i32 %83, 16
  %85 = call i32 @pow_poly(i32 noundef 49154, i32 noundef %84, i32 noundef 98309)
  %86 = trunc i32 %85 to i16
  %87 = load ptr, ptr %4, align 8, !tbaa !4
  %88 = getelementptr inbounds nuw %struct.AC3EncodeContext, ptr %87, i32 0, i32 21
  %89 = getelementptr inbounds [2 x i16], ptr %88, i64 0, i64 1
  store i16 %86, ptr %89, align 2, !tbaa !139
  br label %90

90:                                               ; preds = %69, %41
  %91 = load ptr, ptr %4, align 8, !tbaa !4
  %92 = getelementptr inbounds nuw %struct.AC3EncodeContext, ptr %91, i32 0, i32 79
  %93 = load ptr, ptr %92, align 8, !tbaa !130
  %94 = icmp ne ptr %93, null
  br i1 %94, label %98, label %95

95:                                               ; preds = %90
  %96 = load ptr, ptr %4, align 8, !tbaa !4
  %97 = getelementptr inbounds nuw %struct.AC3EncodeContext, ptr %96, i32 0, i32 79
  store ptr @ac3_output_frame_header, ptr %97, align 8, !tbaa !130
  br label %98

98:                                               ; preds = %95, %90
  %99 = load ptr, ptr %4, align 8, !tbaa !4
  call void @set_bandwidth(ptr noundef %99) #14
  %100 = load ptr, ptr %4, align 8, !tbaa !4
  call void @bit_alloc_init(ptr noundef %100) #14
  %101 = load ptr, ptr %4, align 8, !tbaa !4
  %102 = call i32 @allocate_buffers(ptr noundef %101) #14
  store i32 %102, ptr %5, align 4, !tbaa !9
  %103 = load i32, ptr %5, align 4, !tbaa !9
  %104 = icmp ne i32 %103, 0
  br i1 %104, label %105, label %107

105:                                              ; preds = %98
  %106 = load i32, ptr %5, align 4, !tbaa !9
  store i32 %106, ptr %2, align 4
  store i32 1, ptr %7, align 4
  br label %117

107:                                              ; preds = %98
  %108 = load ptr, ptr %4, align 8, !tbaa !4
  %109 = getelementptr inbounds nuw %struct.AC3EncodeContext, ptr %108, i32 0, i32 3
  call void @ff_audiodsp_init(ptr noundef %109)
  %110 = load ptr, ptr %4, align 8, !tbaa !4
  %111 = getelementptr inbounds nuw %struct.AC3EncodeContext, ptr %110, i32 0, i32 5
  %112 = load ptr, ptr %3, align 8, !tbaa !48
  call void @ff_me_cmp_init(ptr noundef %111, ptr noundef %112)
  %113 = load ptr, ptr %4, align 8, !tbaa !4
  %114 = getelementptr inbounds nuw %struct.AC3EncodeContext, ptr %113, i32 0, i32 6
  call void @ff_ac3dsp_init(ptr noundef %114)
  %115 = load ptr, ptr %4, align 8, !tbaa !4
  call void @dprint_options(ptr noundef %115)
  %116 = call i32 @pthread_once(ptr noundef @ff_ac3_encode_init.init_static_once, ptr noundef @exponent_init)
  store i32 0, ptr %2, align 4
  store i32 1, ptr %7, align 4
  br label %117

117:                                              ; preds = %107, %105, %18
  call void @llvm.lifetime.end.p0(i64 4, ptr %6) #12
  call void @llvm.lifetime.end.p0(i64 4, ptr %5) #12
  call void @llvm.lifetime.end.p0(i64 8, ptr %4) #12
  %118 = load i32, ptr %2, align 4
  ret i32 %118
}