; Function Attrs: cold nounwind optsize uwtable
define range(i32 -22, 1) i32 @ff_ac3_encode_init(ptr noundef %0) local_unnamed_addr #4 {
  %2 = getelementptr inbounds nuw i8, ptr %0, i64 32
  %3 = load ptr, ptr %2, align 8, !tbaa !45
  %4 = getelementptr inbounds nuw i8, ptr %3, i64 112
  store ptr %0, ptr %4, align 16, !tbaa !184
  %5 = tail call fastcc i32 @validate_options(ptr noundef %3) #18
  %.not = icmp eq i32 %5, 0
  br i1 %.not, label %6, label %51

6:                                                ; preds = %1
  %7 = getelementptr inbounds nuw i8, ptr %3, i64 4964
  %8 = load i32, ptr %7, align 4, !tbaa !4
  %9 = shl nsw i32 %8, 8
  %10 = getelementptr inbounds nuw i8, ptr %0, i64 376
  store i32 %9, ptr %10, align 8, !tbaa !203
  %11 = getelementptr inbounds nuw i8, ptr %0, i64 396
  store i32 256, ptr %11, align 4, !tbaa !181
  %12 = getelementptr inbounds nuw i8, ptr %0, i64 388
  %13 = load i32, ptr %12, align 4, !tbaa !190
  %14 = getelementptr inbounds nuw i8, ptr %3, i64 4948
  %15 = icmp eq i32 %13, 8
  %spec.select = select i1 %15, i32 7, i32 %13
  store i32 %spec.select, ptr %14, align 4, !tbaa !204
  %16 = getelementptr inbounds nuw i8, ptr %3, i64 4984
  %17 = getelementptr inbounds nuw i8, ptr %3, i64 4972
  tail call void @llvm.memset.p0.i64(ptr noundef nonnull align 8 dereferenceable(16) %16, i8 0, i64 16, i1 false)
  %18 = load i32, ptr %17, align 4, !tbaa !67
  %19 = shl i32 %18, 2
  %20 = and i32 %19, -16
  %21 = add i32 %20, %18
  %22 = and i32 %21, -16
  %23 = add nsw i32 %22, -16
  %24 = tail call fastcc i32 @pow_poly(i32 noundef %23)
  %25 = trunc i32 %24 to i16
  %26 = getelementptr inbounds nuw i8, ptr %3, i64 4980
  store i16 %25, ptr %26, align 4, !tbaa !127
  %27 = getelementptr inbounds nuw i8, ptr %3, i64 5164
  %28 = load i32, ptr %27, align 4, !tbaa !59
  %29 = icmp eq i32 %28, 1
  br i1 %29, label %30, label %40

30:                                               ; preds = %6
  %31 = add nsw i32 %18, 2
  %32 = shl i32 %31, 2
  %33 = and i32 %32, -16
  %34 = add i32 %33, %31
  %35 = and i32 %34, -16
  %36 = add nsw i32 %35, -16
  %37 = tail call fastcc i32 @pow_poly(i32 noundef %36)
  %38 = trunc i32 %37 to i16
  %39 = getelementptr inbounds nuw i8, ptr %3, i64 4982
  store i16 %38, ptr %39, align 2, !tbaa !127
  br label %40

40:                                               ; preds = %30, %6
  %41 = getelementptr inbounds nuw i8, ptr %3, i64 5864
  %42 = load ptr, ptr %41, align 8, !tbaa !154
  %.not38 = icmp eq ptr %42, null
  br i1 %.not38, label %43, label %44

43:                                               ; preds = %40
  store ptr @ac3_output_frame_header, ptr %41, align 8, !tbaa !154
  br label %44

44:                                               ; preds = %43, %40
  tail call fastcc void @set_bandwidth(ptr noundef nonnull %3) #18
  tail call fastcc void @bit_alloc_init(ptr noundef nonnull %3) #18
  %45 = tail call fastcc i32 @allocate_buffers(ptr noundef nonnull %3) #18
  %.not39 = icmp eq i32 %45, 0
  br i1 %.not39, label %46, label %51

46:                                               ; preds = %44
  %47 = getelementptr inbounds nuw i8, ptr %3, i64 120
  tail call void @ff_audiodsp_init(ptr noundef nonnull %47) #14
  %48 = getelementptr inbounds nuw i8, ptr %3, i64 152
  tail call void @ff_me_cmp_init(ptr noundef nonnull %48, ptr noundef nonnull %0) #14
  %49 = getelementptr inbounds nuw i8, ptr %3, i64 944
  tail call void @ff_ac3dsp_init(ptr noundef nonnull %49) #14
  %50 = tail call i32 @pthread_once(ptr noundef nonnull @ff_ac3_encode_init.init_static_once, ptr noundef nonnull @exponent_init) #14
  br label %51

51:                                               ; preds = %44, %1, %46
  %.0 = phi i32 [ 0, %46 ], [ %5, %1 ], [ %45, %44 ]
  ret i32 %.0
}